; Function Attrs: mustprogress nofree norecurse nosync nounwind willreturn memory(read, argmem: write, inaccessiblemem: none) uwtable
define noundef i32 @casadi_register_nlpsol_scpgen(ptr noundef writeonly captures(none) initializes((0, 28), (32, 40)) %0) #6 {
  store ptr @_ZN6casadi6Scpgen7creatorERKNSt7__cxx1112basic_stringIcSt11char_traitsIcESaIcEEERKNS_8FunctionE, ptr %0, align 8, !tbaa !22
  %2 = getelementptr inbounds nuw i8, ptr %0, i64 8
  store ptr @.str.8, ptr %2, align 8, !tbaa !27
  %3 = load ptr, ptr @_ZN6casadi6Scpgen8meta_docB5cxx11E, align 8, !tbaa !11
  %4 = getelementptr inbounds nuw i8, ptr %0, i64 16
  store ptr %3, ptr %4, align 8, !tbaa !28
  %5 = getelementptr inbounds nuw i8, ptr %0, i64 24
  store i32 31, ptr %5, align 8, !tbaa !29
  %6 = getelementptr inbounds nuw i8, ptr %0, i64 32
  store ptr @_ZN6casadi6Scpgen8options_E, ptr %6, align 8, !tbaa !30
  ret i32 0
}